; Function Attrs: null_pointer_is_valid sspstrong uwtable
define internal void @root_keys_free_cb(ptr noundef readonly captures(none) %0) #0 {
  %2 = load ptr, ptr %0, align 8
  tail call void @g_free(ptr noundef %2)
  %3 = getelementptr inbounds nuw i8, ptr %0, i64 16
  %4 = load ptr, ptr %3, align 8
  %5 = tail call ptr @g_byte_array_free(ptr noundef %4, i32 noundef 1)
  %6 = getelementptr inbounds nuw i8, ptr %0, i64 8
  %7 = load ptr, ptr %6, align 8
  tail call void @g_free(ptr noundef %7)
  %8 = getelementptr inbounds nuw i8, ptr %0, i64 24
  %9 = load ptr, ptr %8, align 8
  %10 = tail call ptr @g_byte_array_free(ptr noundef %9, i32 noundef 1)
  ret void
}